target datalayout = "e-m:e-p270:32:32-p271:32:32-p272:64:64-i64:64-i128:128-f80:128-n8:16:32:64-S128"
target triple = "x86_64-pc-linux-gnu"

%struct.StringInfoData = type { ptr, i32, i32, i32 }

; Function Attrs: nounwind uwtable
define dso_local ptr @generate_opclass_name(i32 noundef %0) #0 {
  %2 = alloca i32, align 4
  %3 = alloca %struct.StringInfoData, align 8
  store i32 %0, ptr %2, align 4
  call void @llvm.lifetime.start.p0(i64 24, ptr %3) #10
  call void @initStringInfo(ptr noundef %3)
  %4 = load i32, ptr %2, align 4
  call void @get_opclass_name(i32 noundef %4, i32 noundef 0, ptr noundef %3)
  %5 = getelementptr inbounds nuw %struct.StringInfoData, ptr %3, i32 0, i32 0
  %6 = load ptr, ptr %5, align 8
  %7 = getelementptr inbounds i8, ptr %6, i64 1
  call void @llvm.lifetime.end.p0(i64 24, ptr %3) #10
  ret ptr %7
}