; Function Attrs: nounwind uwtable
define dso_local nonnull ptr @generate_opclass_name(i32 noundef %0) local_unnamed_addr #0 {
  %2 = alloca %struct.StringInfoData, align 8
  call void @llvm.lifetime.start.p0(i64 24, ptr nonnull %2) #11
  call void @initStringInfo(ptr noundef nonnull %2) #11
  call fastcc void @get_opclass_name(i32 noundef %0, i32 noundef 0, ptr noundef nonnull %2)
  %3 = load ptr, ptr %2, align 8
  %4 = getelementptr inbounds nuw i8, ptr %3, i64 1
  call void @llvm.lifetime.end.p0(i64 24, ptr nonnull %2) #11
  ret ptr %4
}